target datalayout = "e-m:e-p270:32:32-p271:32:32-p272:64:64-i64:64-i128:128-f80:128-n8:16:32:64-S128"
target triple = "x86_64-pc-linux-gnu"

%struct._packet_info = type { ptr, ptr, i32, i32, %struct.nstime_t, %struct.nstime_t, %struct.nstime_t, i8, ptr, ptr, ptr, ptr, %struct._address, %struct._address, %struct._address, %struct._address, %struct._address, %struct._address, i32, ptr, i8, [3 x i8], %struct.anon, i32, i32, i32, i32, ptr, i8, ptr, ptr, i16, i16, i32, i32, i16, i32, i32, ptr, ptr, ptr, i8, i8, i16, i16, i16, i32, i16, i16, ptr, ptr, ptr, ptr, ptr, i32, i32 }
%struct.nstime_t = type { i64, i32 }
%struct._address = type { i32, i32, ptr, ptr }
%struct.anon = type { i8, [3 x i8] }

; Function Attrs: null_pointer_is_valid sspstrong uwtable
define internal zeroext i1 @test_shicp(ptr noundef %0, ptr noundef %1, i32 noundef %2, ptr noundef %3) #0 {
  %5 = alloca i1, align 1
  %6 = alloca ptr, align 8
  %7 = alloca ptr, align 8
  %8 = alloca i32, align 4
  %9 = alloca ptr, align 8
  store ptr %0, ptr %6, align 8
  store ptr %1, ptr %7, align 8
  store i32 %2, ptr %8, align 4
  store ptr %3, ptr %9, align 8
  %10 = load ptr, ptr %6, align 8
  %11 = getelementptr inbounds nuw %struct._packet_info, ptr %10, i32 0, i32 25
  %12 = load i32, ptr %11, align 8
  %13 = icmp ne i32 %12, 3250
  br i1 %13, label %14, label %15

14:                                               ; preds = %4
  store i1 false, ptr %5, align 1
  br label %33

15:                                               ; preds = %4
  %16 = load ptr, ptr %7, align 8
  %17 = call i32 @tvb_reported_length(ptr noundef %16)
  %18 = icmp ult i32 %17, 2
  br i1 %18, label %23, label %19

19:                                               ; preds = %15
  %20 = load ptr, ptr %7, align 8
  %21 = call i32 @tvb_reported_length(ptr noundef %20)
  %22 = icmp ugt i32 %21, 548
  br i1 %22, label %23, label %24

23:                                               ; preds = %19, %15
  store i1 false, ptr %5, align 1
  br label %33

24:                                               ; preds = %19
  %25 = load ptr, ptr %7, align 8
  %26 = load i32, ptr %8, align 4
  %27 = call zeroext i16 @tvb_get_uint16(ptr noundef %25, i32 noundef %26, i32 noundef -2147483648)
  %28 = zext i16 %27 to i32
  %29 = and i32 %28, 65528
  %30 = icmp ne i32 %29, 43968
  br i1 %30, label %31, label %32

31:                                               ; preds = %24
  store i1 false, ptr %5, align 1
  br label %33

32:                                               ; preds = %24
  store i1 true, ptr %5, align 1
  br label %33

33:                                               ; preds = %32, %31, %23, %14
  %34 = load i1, ptr %5, align 1
  ret i1 %34
}