; Function Attrs: null_pointer_is_valid sspstrong uwtable
define internal zeroext i1 @test_shicp(ptr noundef readonly captures(none) %0, ptr noundef %1, i32 noundef %2, ptr readnone captures(none) %3) #0 {
  %5 = getelementptr inbounds nuw i8, ptr %0, i64 288
  %6 = load i32, ptr %5, align 8
  %.not = icmp eq i32 %6, 3250
  br i1 %.not, label %7, label %16

7:                                                ; preds = %4
  %8 = tail call i32 @tvb_reported_length(ptr noundef %1)
  %9 = icmp ult i32 %8, 2
  br i1 %9, label %16, label %10

10:                                               ; preds = %7
  %11 = tail call i32 @tvb_reported_length(ptr noundef %1)
  %12 = icmp ugt i32 %11, 548
  br i1 %12, label %16, label %13

13:                                               ; preds = %10
  %14 = tail call zeroext i16 @tvb_get_uint16(ptr noundef %1, i32 noundef %2, i32 noundef -2147483648)
  %15 = and i16 %14, -8
  %.not5 = icmp eq i16 %15, -21568
  br label %16

16:                                               ; preds = %13, %7, %10, %4
  %.0 = phi i1 [ false, %4 ], [ false, %10 ], [ false, %7 ], [ %.not5, %13 ]
  ret i1 %.0
}